target datalayout = "e-m:e-p270:32:32-p271:32:32-p272:64:64-i64:64-i128:128-f80:128-n8:16:32:64-S128"
target triple = "x86_64-pc-linux-gnu"

%struct.varattrib_1b = type { i8, [0 x i8] }
%struct.varattrib_1b_e = type { i8, i8, [0 x i8] }
%struct.anon.0 = type { i32, i32, [0 x i8] }
%struct.varatt_external = type { i32, i32, i32, i32 }

; Function Attrs: nounwind uwtable
define dso_local i32 @toast_get_compression_id(ptr noundef %0) #0 {
  %2 = alloca ptr, align 8
  %3 = alloca i32, align 4
  %4 = alloca %struct.varatt_external, align 4
  %5 = alloca ptr, align 8
  store ptr %0, ptr %2, align 8
  call void @llvm.lifetime.start.p0(i64 4, ptr %3) #6
  store i32 2, ptr %3, align 4
  %6 = load ptr, ptr %2, align 8
  %7 = getelementptr inbounds nuw %struct.varattrib_1b, ptr %6, i32 0, i32 0
  %8 = load i8, ptr %7, align 1
  %9 = zext i8 %8 to i32
  %10 = icmp eq i32 %9, 1
  br i1 %10, label %11, label %37

11:                                               ; preds = %1
  %12 = load ptr, ptr %2, align 8
  %13 = getelementptr inbounds nuw %struct.varattrib_1b_e, ptr %12, i32 0, i32 1
  %14 = load i8, ptr %13, align 1
  %15 = zext i8 %14 to i32
  %16 = icmp eq i32 %15, 18
  br i1 %16, label %17, label %37

17:                                               ; preds = %11
  call void @llvm.lifetime.start.p0(i64 16, ptr %4) #6
  br label %18

18:                                               ; preds = %17
  call void @llvm.lifetime.start.p0(i64 8, ptr %5) #6
  %19 = load ptr, ptr %2, align 8
  store ptr %19, ptr %5, align 8
  %20 = load ptr, ptr %5, align 8
  %21 = getelementptr inbounds nuw %struct.varattrib_1b_e, ptr %20, i32 0, i32 2
  %22 = getelementptr inbounds [0 x i8], ptr %21, i64 0, i64 0
  call void @llvm.memcpy.p0.p0.i64(ptr align 4 %4, ptr align 1 %22, i64 16, i1 false)
  call void @llvm.lifetime.end.p0(i64 8, ptr %5) #6
  br label %23

23:                                               ; preds = %18
  br label %24

24:                                               ; preds = %23
  %25 = getelementptr inbounds nuw %struct.varatt_external, ptr %4, i32 0, i32 1
  %26 = load i32, ptr %25, align 4
  %27 = and i32 %26, 1073741823
  %28 = getelementptr inbounds nuw %struct.varatt_external, ptr %4, i32 0, i32 0
  %29 = load i32, ptr %28, align 4
  %30 = sub i32 %29, 4
  %31 = icmp ult i32 %27, %30
  br i1 %31, label %32, label %36

32:                                               ; preds = %24
  %33 = getelementptr inbounds nuw %struct.varatt_external, ptr %4, i32 0, i32 1
  %34 = load i32, ptr %33, align 4
  %35 = lshr i32 %34, 30
  store i32 %35, ptr %3, align 4
  br label %36

36:                                               ; preds = %32, %24
  call void @llvm.lifetime.end.p0(i64 16, ptr %4) #6
  br label %50

37:                                               ; preds = %11, %1
  %38 = load ptr, ptr %2, align 8
  %39 = getelementptr inbounds nuw %struct.varattrib_1b, ptr %38, i32 0, i32 0
  %40 = load i8, ptr %39, align 1
  %41 = zext i8 %40 to i32
  %42 = and i32 %41, 3
  %43 = icmp eq i32 %42, 2
  br i1 %43, label %44, label %49

44:                                               ; preds = %37
  %45 = load ptr, ptr %2, align 8
  %46 = getelementptr inbounds nuw %struct.anon.0, ptr %45, i32 0, i32 1
  %47 = load i32, ptr %46, align 4
  %48 = lshr i32 %47, 30
  store i32 %48, ptr %3, align 4
  br label %49

49:                                               ; preds = %44, %37
  br label %50

50:                                               ; preds = %49, %36
  %51 = load i32, ptr %3, align 4
  call void @llvm.lifetime.end.p0(i64 4, ptr %3) #6
  ret i32 %51
}