; Function Attrs: mustprogress nofree norecurse nosync nounwind willreturn memory(argmem: read) uwtable
define dso_local range(i32 0, 4) i32 @toast_get_compression_id(ptr noundef readonly captures(none) %0) local_unnamed_addr #4 {
  %2 = load i8, ptr %0, align 1
  %3 = icmp eq i8 %2, 1
  br i1 %3, label %4, label %14

4:                                                ; preds = %1
  %5 = getelementptr inbounds nuw i8, ptr %0, i64 1
  %6 = load i8, ptr %5, align 1
  %7 = icmp eq i8 %6, 18
  br i1 %7, label %8, label %.thread

8:                                                ; preds = %4
  %9 = getelementptr inbounds nuw i8, ptr %0, i64 2
  %.sroa.0.0.copyload = load i32, ptr %9, align 1
  %.sroa.4.0..sroa_idx = getelementptr inbounds nuw i8, ptr %0, i64 6
  %.sroa.4.0.copyload = load i32, ptr %.sroa.4.0..sroa_idx, align 1
  %10 = and i32 %.sroa.4.0.copyload, 1073741823
  %11 = add i32 %.sroa.0.0.copyload, -4
  %12 = icmp ult i32 %10, %11
  %13 = lshr i32 %.sroa.4.0.copyload, 30
  %spec.select = select i1 %12, i32 %13, i32 2
  br label %.thread

14:                                               ; preds = %1
  %15 = and i8 %2, 3
  %16 = icmp eq i8 %15, 2
  br i1 %16, label %17, label %.thread

17:                                               ; preds = %14
  %18 = getelementptr inbounds nuw i8, ptr %0, i64 4
  %19 = load i32, ptr %18, align 4
  %20 = lshr i32 %19, 30
  br label %.thread

.thread:                                          ; preds = %4, %14, %17, %8
  %.1 = phi i32 [ %spec.select, %8 ], [ %20, %17 ], [ 2, %14 ], [ 2, %4 ]
  ret i32 %.1
}